target datalayout = "e-m:e-p270:32:32-p271:32:32-p272:64:64-i64:64-i128:128-f80:128-n8:16:32:64-S128"
target triple = "x86_64-unknown-linux-gnu"

%struct.PtyChardev = type { %struct.Chardev, ptr, i32, i32, ptr }
%struct.Chardev = type { %struct.Object, %struct.QemuMutex, ptr, ptr, ptr, i32, i32, i8, ptr, ptr, [1 x i64] }
%struct.Object = type { ptr, ptr, ptr, i32, ptr }
%struct.QemuMutex = type { %union.pthread_mutex_t, i8 }
%union.pthread_mutex_t = type { %struct.__pthread_mutex_s }
%struct.__pthread_mutex_s = type { i32, i32, i32, i32, i32, i16, i16, %struct.__pthread_internal_list }
%struct.__pthread_internal_list = type { ptr, ptr }
%struct.termios = type { i32, i32, i32, i32, i8, [32 x i8], i32, i32 }

@.str = private unnamed_addr constant [12 x i8] c"chardev-pty\00", align 1
@.str.3 = private unnamed_addr constant [27 x i8] c"../qemu/chardev/char-pty.c\00", align 1
@__func__.PTY_CHARDEV = private unnamed_addr constant [12 x i8] c"PTY_CHARDEV\00", align 1
@__func__.char_pty_open = private unnamed_addr constant [14 x i8] c"char_pty_open\00", align 1
@.str.5 = private unnamed_addr constant [21 x i8] c"Failed to create PTY\00", align 1
@.str.6 = private unnamed_addr constant [29 x i8] c"Failed to set FD nonblocking\00", align 1
@.str.7 = private unnamed_addr constant [7 x i8] c"pty:%s\00", align 1
@.str.8 = private unnamed_addr constant [41 x i8] c"char device redirected to %s (label %s)\0A\00", align 1
@.str.9 = private unnamed_addr constant [15 x i8] c"chardev-pty-%s\00", align 1
@.str.10 = private unnamed_addr constant [12 x i8] c"qio-channel\00", align 1
@.str.11 = private unnamed_addr constant [99 x i8] c"/home/dtcxzyw/WorkSpace/Projects/compilers/llvm-opt-benchmark/bench/qemu/qemu/include/io/channel.h\00", align 1
@__func__.QIO_CHANNEL = private unnamed_addr constant [12 x i8] c"QIO_CHANNEL\00", align 1

; Function Attrs: nounwind sspstrong uwtable
define internal ptr @QIO_CHANNEL(ptr noundef %obj) #0 {
entry:
  %obj.addr = alloca ptr, align 8
  store ptr %obj, ptr %obj.addr, align 8
  %0 = load ptr, ptr %obj.addr, align 8
  %call = call ptr @object_dynamic_cast_assert(ptr noundef %0, ptr noundef @.str.10, ptr noundef @.str.11, i32 noundef 30, ptr noundef @__func__.QIO_CHANNEL)
  ret ptr %call
}

; Function Attrs: nounwind sspstrong uwtable
define internal ptr @PTY_CHARDEV(ptr noundef %obj) #0 {
entry:
  %obj.addr = alloca ptr, align 8
  store ptr %obj, ptr %obj.addr, align 8
  %0 = load ptr, ptr %obj.addr, align 8
  %call = call ptr @object_dynamic_cast_assert(ptr noundef %0, ptr noundef @.str, ptr noundef @.str.3, i32 noundef 48, ptr noundef @__func__.PTY_CHARDEV)
  ret ptr %call
}

; Function Attrs: nounwind sspstrong uwtable
define internal i32 @qemu_openpty_raw(ptr noundef %aslave, ptr noundef %pty_name) #0 {
entry:
  %retval = alloca i32, align 4
  %aslave.addr = alloca ptr, align 8
  %pty_name.addr = alloca ptr, align 8
  %amaster = alloca i32, align 4
  %tty = alloca %struct.termios, align 4
  %pty_buf = alloca ptr, align 8
  store ptr %aslave, ptr %aslave.addr, align 8
  store ptr %pty_name, ptr %pty_name.addr, align 8
  store ptr null, ptr %pty_buf, align 8
  %0 = load ptr, ptr %aslave.addr, align 8
  %1 = load ptr, ptr %pty_buf, align 8
  %call = call i32 @openpty(ptr noundef %amaster, ptr noundef %0, ptr noundef %1, ptr noundef null, ptr noundef null) #9
  %cmp = icmp slt i32 %call, 0
  br i1 %cmp, label %if.then, label %if.end

if.then:                                          ; preds = %entry
  store i32 -1, ptr %retval, align 4
  br label %return

if.end:                                           ; preds = %entry
  %2 = load ptr, ptr %aslave.addr, align 8
  %3 = load i32, ptr %2, align 4
  %call1 = call i32 @tcgetattr(i32 noundef %3, ptr noundef %tty) #9
  call void @cfmakeraw(ptr noundef %tty) #9
  %4 = load ptr, ptr %aslave.addr, align 8
  %5 = load i32, ptr %4, align 4
  %call2 = call i32 @tcsetattr(i32 noundef %5, i32 noundef 2, ptr noundef %tty) #9
  %6 = load ptr, ptr %pty_name.addr, align 8
  %tobool = icmp ne ptr %6, null
  br i1 %tobool, label %if.then3, label %if.end6

if.then3:                                         ; preds = %if.end
  %7 = load ptr, ptr %pty_name.addr, align 8
  %8 = load i32, ptr %amaster, align 4
  %call4 = call ptr @ptsname(i32 noundef %8) #9
  %call5 = call ptr @strcpy(ptr noundef %7, ptr noundef %call4) #9
  br label %if.end6

if.end6:                                          ; preds = %if.then3, %if.end
  %9 = load i32, ptr %amaster, align 4
  store i32 %9, ptr %retval, align 4
  br label %return

return:                                           ; preds = %if.end6, %if.then
  %10 = load i32, ptr %retval, align 4
  ret i32 %10
}

; Function Attrs: nounwind sspstrong uwtable
define internal void @char_pty_open(ptr noundef %chr, ptr noundef %backend, ptr noundef %be_opened, ptr noundef %errp) #0 {
entry:
  %chr.addr = alloca ptr, align 8
  %backend.addr = alloca ptr, align 8
  %be_opened.addr = alloca ptr, align 8
  %errp.addr = alloca ptr, align 8
  %s = alloca ptr, align 8
  %master_fd = alloca i32, align 4
  %slave_fd = alloca i32, align 4
  %pty_name = alloca [4096 x i8], align 16
  %name = alloca ptr, align 8
  store ptr %chr, ptr %chr.addr, align 8
  store ptr %backend, ptr %backend.addr, align 8
  store ptr %be_opened, ptr %be_opened.addr, align 8
  store ptr %errp, ptr %errp.addr, align 8
  %arraydecay = getelementptr inbounds [4096 x i8], ptr %pty_name, i64 0, i64 0
  %call = call i32 @qemu_openpty_raw(ptr noundef %slave_fd, ptr noundef %arraydecay)
  store i32 %call, ptr %master_fd, align 4
  %0 = load i32, ptr %master_fd, align 4
  %cmp = icmp slt i32 %0, 0
  br i1 %cmp, label %if.then, label %if.end

if.then:                                          ; preds = %entry
  %1 = load ptr, ptr %errp.addr, align 8
  %call1 = call ptr @__errno_location() #6
  %2 = load i32, ptr %call1, align 4
  call void (ptr, ptr, i32, ptr, i32, ptr, ...) @error_setg_errno_internal(ptr noundef %1, ptr noundef @.str.3, i32 noundef 336, ptr noundef @__func__.char_pty_open, i32 noundef %2, ptr noundef @.str.5)
  br label %return

if.end:                                           ; preds = %entry
  %3 = load i32, ptr %slave_fd, align 4
  %call2 = call i32 @close(i32 noundef %3)
  %4 = load i32, ptr %master_fd, align 4
  %call3 = call i32 @g_unix_set_fd_nonblocking(i32 noundef %4, i32 noundef 1, ptr noundef null)
  %tobool = icmp ne i32 %call3, 0
  br i1 %tobool, label %if.end6, label %if.then4

if.then4:                                         ; preds = %if.end
  %5 = load ptr, ptr %errp.addr, align 8
  %call5 = call ptr @__errno_location() #6
  %6 = load i32, ptr %call5, align 4
  call void (ptr, ptr, i32, ptr, i32, ptr, ...) @error_setg_errno_internal(ptr noundef %5, ptr noundef @.str.3, i32 noundef 342, ptr noundef @__func__.char_pty_open, i32 noundef %6, ptr noundef @.str.6)
  br label %return

if.end6:                                          ; preds = %if.end
  %arraydecay7 = getelementptr inbounds [4096 x i8], ptr %pty_name, i64 0, i64 0
  %call8 = call noalias ptr (ptr, ...) @g_strdup_printf(ptr noundef @.str.7, ptr noundef %arraydecay7)
  %7 = load ptr, ptr %chr.addr, align 8
  %filename = getelementptr inbounds %struct.Chardev, ptr %7, i32 0, i32 4
  store ptr %call8, ptr %filename, align 8
  %arraydecay9 = getelementptr inbounds [4096 x i8], ptr %pty_name, i64 0, i64 0
  %8 = load ptr, ptr %chr.addr, align 8
  %label = getelementptr inbounds %struct.Chardev, ptr %8, i32 0, i32 3
  %9 = load ptr, ptr %label, align 8
  %call10 = call i32 (ptr, ...) @qemu_printf(ptr noundef @.str.8, ptr noundef %arraydecay9, ptr noundef %9)
  %10 = load ptr, ptr %chr.addr, align 8
  %call11 = call ptr @PTY_CHARDEV(ptr noundef %10)
  store ptr %call11, ptr %s, align 8
  %11 = load i32, ptr %master_fd, align 4
  %call12 = call ptr @qio_channel_file_new_fd(i32 noundef %11)
  %call13 = call ptr @QIO_CHANNEL(ptr noundef %call12)
  %12 = load ptr, ptr %s, align 8
  %ioc = getelementptr inbounds %struct.PtyChardev, ptr %12, i32 0, i32 1
  store ptr %call13, ptr %ioc, align 8
  %13 = load ptr, ptr %chr.addr, align 8
  %label14 = getelementptr inbounds %struct.Chardev, ptr %13, i32 0, i32 3
  %14 = load ptr, ptr %label14, align 8
  %call15 = call noalias ptr (ptr, ...) @g_strdup_printf(ptr noundef @.str.9, ptr noundef %14)
  store ptr %call15, ptr %name, align 8
  %15 = load ptr, ptr %s, align 8
  %ioc16 = getelementptr inbounds %struct.PtyChardev, ptr %15, i32 0, i32 1
  %16 = load ptr, ptr %ioc16, align 8
  %17 = load ptr, ptr %name, align 8
  call void @qio_channel_set_name(ptr noundef %16, ptr noundef %17)
  %18 = load ptr, ptr %name, align 8
  call void @g_free(ptr noundef %18)
  %19 = load ptr, ptr %s, align 8
  %timer_src = getelementptr inbounds %struct.PtyChardev, ptr %19, i32 0, i32 4
  store ptr null, ptr %timer_src, align 8
  %20 = load ptr, ptr %be_opened.addr, align 8
  store i8 0, ptr %20, align 1
  br label %return

return:                                           ; preds = %if.end6, %if.then4, %if.then
  ret void
}