; Function Attrs: nounwind sspstrong uwtable
define internal void @char_pty_open(ptr noundef %chr, ptr readnone captures(none) %backend, ptr noundef writeonly captures(none) %be_opened, ptr noundef %errp) #0 {
entry:
  %amaster.i = alloca i32, align 4
  %tty.i = alloca %struct.termios, align 4
  %slave_fd = alloca i32, align 4
  %pty_name = alloca [4096 x i8], align 16
  call void @llvm.lifetime.start.p0(i64 4, ptr nonnull %amaster.i)
  call void @llvm.lifetime.start.p0(i64 60, ptr nonnull %tty.i)
  %call.i = call i32 @openpty(ptr noundef nonnull %amaster.i, ptr noundef nonnull %slave_fd, ptr noundef null, ptr noundef null, ptr noundef null) #9
  %cmp.i = icmp slt i32 %call.i, 0
  br i1 %cmp.i, label %qemu_openpty_raw.exit.thread, label %qemu_openpty_raw.exit

qemu_openpty_raw.exit.thread:                     ; preds = %entry
  call void @llvm.lifetime.end.p0(i64 4, ptr nonnull %amaster.i)
  call void @llvm.lifetime.end.p0(i64 60, ptr nonnull %tty.i)
  br label %if.then

qemu_openpty_raw.exit:                            ; preds = %entry
  %0 = load i32, ptr %slave_fd, align 4
  %call1.i = call i32 @tcgetattr(i32 noundef %0, ptr noundef nonnull %tty.i) #9
  call void @cfmakeraw(ptr noundef nonnull %tty.i) #9
  %1 = load i32, ptr %slave_fd, align 4
  %call2.i = call i32 @tcsetattr(i32 noundef %1, i32 noundef 2, ptr noundef nonnull %tty.i) #9
  %2 = load i32, ptr %amaster.i, align 4
  %call4.i = call ptr @ptsname(i32 noundef %2) #9
  %call5.i = call ptr @strcpy(ptr noundef nonnull dereferenceable(1) %pty_name, ptr noundef nonnull dereferenceable(1) %call4.i) #9
  %3 = load i32, ptr %amaster.i, align 4
  call void @llvm.lifetime.end.p0(i64 4, ptr nonnull %amaster.i)
  call void @llvm.lifetime.end.p0(i64 60, ptr nonnull %tty.i)
  %cmp = icmp slt i32 %3, 0
  br i1 %cmp, label %if.then, label %if.end

if.then:                                          ; preds = %qemu_openpty_raw.exit.thread, %qemu_openpty_raw.exit
  %call1 = tail call ptr @__errno_location() #10
  %4 = load i32, ptr %call1, align 4
  call void (ptr, ptr, i32, ptr, i32, ptr, ...) @error_setg_errno_internal(ptr noundef %errp, ptr noundef nonnull @.str.3, i32 noundef 336, ptr noundef nonnull @__func__.char_pty_open, i32 noundef %4, ptr noundef nonnull @.str.5) #9
  br label %return

if.end:                                           ; preds = %qemu_openpty_raw.exit
  %5 = load i32, ptr %slave_fd, align 4
  %call2 = call i32 @close(i32 noundef %5) #9
  %call3 = call i32 @g_unix_set_fd_nonblocking(i32 noundef %3, i32 noundef 1, ptr noundef null) #9
  %tobool.not = icmp eq i32 %call3, 0
  br i1 %tobool.not, label %if.then4, label %if.end6

if.then4:                                         ; preds = %if.end
  %call5 = tail call ptr @__errno_location() #10
  %6 = load i32, ptr %call5, align 4
  call void (ptr, ptr, i32, ptr, i32, ptr, ...) @error_setg_errno_internal(ptr noundef %errp, ptr noundef nonnull @.str.3, i32 noundef 342, ptr noundef nonnull @__func__.char_pty_open, i32 noundef %6, ptr noundef nonnull @.str.6) #9
  br label %return

if.end6:                                          ; preds = %if.end
  %call8 = call noalias ptr (ptr, ...) @g_strdup_printf(ptr noundef nonnull @.str.7, ptr noundef nonnull %pty_name) #9
  %filename = getelementptr inbounds nuw i8, ptr %chr, i64 104
  store ptr %call8, ptr %filename, align 8
  %label = getelementptr inbounds nuw i8, ptr %chr, i64 96
  %7 = load ptr, ptr %label, align 8
  %call10 = call i32 (ptr, ...) @qemu_printf(ptr noundef nonnull @.str.8, ptr noundef nonnull %pty_name, ptr noundef %7) #9
  %call.i10 = call ptr @object_dynamic_cast_assert(ptr noundef %chr, ptr noundef nonnull @.str, ptr noundef nonnull @.str.3, i32 noundef 48, ptr noundef nonnull @__func__.PTY_CHARDEV) #9
  %call12 = call ptr @qio_channel_file_new_fd(i32 noundef %3) #9
  %call.i11 = call ptr @object_dynamic_cast_assert(ptr noundef %call12, ptr noundef nonnull @.str.10, ptr noundef nonnull @.str.11, i32 noundef 30, ptr noundef nonnull @__func__.QIO_CHANNEL) #9
  %ioc = getelementptr inbounds nuw i8, ptr %call.i10, i64 152
  store ptr %call.i11, ptr %ioc, align 8
  %8 = load ptr, ptr %label, align 8
  %call15 = call noalias ptr (ptr, ...) @g_strdup_printf(ptr noundef nonnull @.str.9, ptr noundef %8) #9
  %9 = load ptr, ptr %ioc, align 8
  call void @qio_channel_set_name(ptr noundef %9, ptr noundef %call15) #9
  call void @g_free(ptr noundef %call15) #9
  %timer_src = getelementptr inbounds nuw i8, ptr %call.i10, i64 168
  store ptr null, ptr %timer_src, align 8
  store i8 0, ptr %be_opened, align 1
  br label %return

return:                                           ; preds = %if.end6, %if.then4, %if.then
  ret void
}